; ModuleID = '49/1380.c'
source_filename = "49/1380.c"
target datalayout = "e-m:e-p270:32:32-p271:32:32-p272:64:64-i64:64-f80:128-n8:16:32:64-S128"
target triple = "x86_64-pc-linux-gnu"

@.str = private unnamed_addr constant [3 x i8] c"%c\00", align 1

; Function Attrs: noinline nounwind uwtable
define dso_local i32 @judge(i8* %0, i32 %1, i32 %2) #0 {
  %4 = alloca i32, align 4
  %5 = alloca i8*, align 8
  %6 = alloca i32, align 4
  %7 = alloca i32, align 4
  %8 = alloca i32, align 4
  store i8* %0, i8** %5, align 8
  store i32 %1, i32* %6, align 4
  store i32 %2, i32* %7, align 4
  %9 = load i32, i32* %6, align 4
  %10 = load i32, i32* %7, align 4
  %11 = add nsw i32 %9, %10
  store i32 %11, i32* %8, align 4
  br label %12

12:                                               ; preds = %37, %3
  %13 = load i8*, i8** %5, align 8
  %14 = load i32, i32* %6, align 4
  %15 = sext i32 %14 to i64
  %16 = getelementptr inbounds i8, i8* %13, i64 %15
  %17 = load i8, i8* %16, align 1
  %18 = sext i8 %17 to i32
  %19 = load i8*, i8** %5, align 8
  %20 = load i32, i32* %8, align 4
  %21 = sext i32 %20 to i64
  %22 = getelementptr inbounds i8, i8* %19, i64 %21
  %23 = load i8, i8* %22, align 1
  %24 = sext i8 %23 to i32
  %25 = icmp eq i32 %18, %24
  br i1 %25, label %26, label %35

26:                                               ; preds = %12
  %27 = load i32, i32* %6, align 4
  %28 = sext i32 %27 to i64
  %29 = load i8*, i8** %5, align 8
  %30 = call i64 @strlen(i8* %29) #4
  %31 = icmp ule i64 %28, %30
  br i1 %31, label %32, label %35

32:                                               ; preds = %26
  %33 = load i32, i32* %8, align 4
  %34 = icmp sge i32 %33, 0
  br label %35

35:                                               ; preds = %32, %26, %12
  %36 = phi i1 [ false, %26 ], [ false, %12 ], [ %34, %32 ]
  br i1 %36, label %37, label %42

37:                                               ; preds = %35
  %38 = load i32, i32* %6, align 4
  %39 = add nsw i32 %38, 1
  store i32 %39, i32* %6, align 4
  %40 = load i32, i32* %8, align 4
  %41 = add nsw i32 %40, -1
  store i32 %41, i32* %8, align 4
  br label %12

42:                                               ; preds = %35
  %43 = load i32, i32* %6, align 4
  %44 = load i32, i32* %8, align 4
  %45 = icmp sge i32 %43, %44
  br i1 %45, label %46, label %47

46:                                               ; preds = %42
  store i32 1, i32* %4, align 4
  br label %48

47:                                               ; preds = %42
  store i32 0, i32* %4, align 4
  br label %48

48:                                               ; preds = %47, %46
  %49 = load i32, i32* %4, align 4
  ret i32 %49
}

; Function Attrs: nounwind readonly
declare dso_local i64 @strlen(i8*) #1

; Function Attrs: noinline nounwind uwtable
define dso_local i32 @main() #0 {
  %1 = alloca i32, align 4
  %2 = alloca [510 x i8], align 16
  %3 = alloca i32, align 4
  %4 = alloca i32, align 4
  %5 = alloca i32, align 4
  store i32 0, i32* %1, align 4
  %6 = getelementptr inbounds [510 x i8], [510 x i8]* %2, i64 0, i64 0
  call void @llvm.memset.p0i8.i64(i8* align 16 %6, i8 0, i64 510, i1 false)
  %7 = getelementptr inbounds [510 x i8], [510 x i8]* %2, i64 0, i64 0
  %8 = call i32 (i8*, ...) bitcast (i32 (...)* @gets to i32 (i8*, ...)*)(i8* %7)
  store i32 1, i32* %5, align 4
  br label %9

9:                                                ; preds = %55, %0
  %10 = load i32, i32* %5, align 4
  %11 = sext i32 %10 to i64
  %12 = getelementptr inbounds [510 x i8], [510 x i8]* %2, i64 0, i64 0
  %13 = call i64 @strlen(i8* %12) #4
  %14 = icmp ult i64 %11, %13
  br i1 %14, label %15, label %58

15:                                               ; preds = %9
  store i32 0, i32* %3, align 4
  br label %16

16:                                               ; preds = %51, %15
  %17 = load i32, i32* %3, align 4
  %18 = load i32, i32* %5, align 4
  %19 = add nsw i32 %17, %18
  %20 = sext i32 %19 to i64
  %21 = getelementptr inbounds [510 x i8], [510 x i8]* %2, i64 0, i64 0
  %22 = call i64 @strlen(i8* %21) #4
  %23 = icmp ult i64 %20, %22
  br i1 %23, label %24, label %54

24:                                               ; preds = %16
  %25 = getelementptr inbounds [510 x i8], [510 x i8]* %2, i64 0, i64 0
  %26 = load i32, i32* %3, align 4
  %27 = load i32, i32* %5, align 4
  %28 = call i32 @judge(i8* %25, i32 %26, i32 %27)
  %29 = icmp ne i32 %28, 0
  br i1 %29, label %30, label %50

30:                                               ; preds = %24
  %31 = load i32, i32* %3, align 4
  store i32 %31, i32* %4, align 4
  br label %32

32:                                               ; preds = %45, %30
  %33 = load i32, i32* %4, align 4
  %34 = load i32, i32* %3, align 4
  %35 = load i32, i32* %5, align 4
  %36 = add nsw i32 %34, %35
  %37 = icmp sle i32 %33, %36
  br i1 %37, label %38, label %48

38:                                               ; preds = %32
  %39 = load i32, i32* %4, align 4
  %40 = sext i32 %39 to i64
  %41 = getelementptr inbounds [510 x i8], [510 x i8]* %2, i64 0, i64 %40
  %42 = load i8, i8* %41, align 1
  %43 = sext i8 %42 to i32
  %44 = call i32 (i8*, ...) @printf(i8* getelementptr inbounds ([3 x i8], [3 x i8]* @.str, i64 0, i64 0), i32 %43)
  br label %45

45:                                               ; preds = %38
  %46 = load i32, i32* %4, align 4
  %47 = add nsw i32 %46, 1
  store i32 %47, i32* %4, align 4
  br label %32

48:                                               ; preds = %32
  %49 = call i32 @putchar(i32 10)
  br label %50

50:                                               ; preds = %48, %24
  br label %51

51:                                               ; preds = %50
  %52 = load i32, i32* %3, align 4
  %53 = add nsw i32 %52, 1
  store i32 %53, i32* %3, align 4
  br label %16

54:                                               ; preds = %16
  br label %55

55:                                               ; preds = %54
  %56 = load i32, i32* %5, align 4
  %57 = add nsw i32 %56, 1
  store i32 %57, i32* %5, align 4
  br label %9

58:                                               ; preds = %9
  ret i32 0
}

; Function Attrs: argmemonly nounwind willreturn
declare void @llvm.memset.p0i8.i64(i8* nocapture writeonly, i8, i64, i1 immarg) #2

declare dso_local i32 @gets(...) #3

declare dso_local i32 @printf(i8*, ...) #3

declare dso_local i32 @putchar(i32) #3


!llvm.module.flags = !{!0}
!llvm.ident = !{!1}

!0 = !{i32 1, !"wchar_size", i32 4}
!1 = !{!"clang version 10.0.0-4ubuntu1 "}
